ARM GAS  /var/folders/sb/5wbx477s1bdgzdppd6ypx7ym0000gn/T//cccdFglY.s 			page 1


   1              		.cpu cortex-m3
   2              		.arch armv7-m
   3              		.fpu softvfp
   4              		.eabi_attribute 20, 1
   5              		.eabi_attribute 21, 1
   6              		.eabi_attribute 23, 3
   7              		.eabi_attribute 24, 1
   8              		.eabi_attribute 25, 1
   9              		.eabi_attribute 26, 1
  10              		.eabi_attribute 30, 6
  11              		.eabi_attribute 34, 1
  12              		.eabi_attribute 18, 4
  13              		.file	"menu.c"
  14              		.text
  15              	.Ltext0:
  16              		.cfi_sections	.debug_frame
  17              		.file 1 "Application/source/menu.c"
  18              		.section	.bss.menu_entries,"aw",%nobits
  19              		.align	2
  22              	menu_entries:
  23 0000 00000000 		.space	4
  24              		.section	.bss.menu_default_handler,"aw",%nobits
  25              		.align	2
  28              	menu_default_handler:
  29 0000 00000000 		.space	4
  30              		.section	.bss.menu_command_count,"aw",%nobits
  33              	menu_command_count:
  34 0000 00       		.space	1
  35              		.section	.text.menu_init,"ax",%progbits
  36              		.align	1
  37              		.global	menu_init
  38              		.syntax unified
  39              		.thumb
  40              		.thumb_func
  42              	menu_init:
  43              	.LFB0:
   1:Application/source/menu.c **** #include "menu.h"
   2:Application/source/menu.c **** #include "menu_handlers.h"
   3:Application/source/menu.c **** #include <string.h>
   4:Application/source/menu.c **** 
   5:Application/source/menu.c **** static menu_entry_t *menu_entries = NULL;
   6:Application/source/menu.c **** static menu_handler_t menu_default_handler = NULL;
   7:Application/source/menu.c **** static uint8_t menu_command_count = 0;
   8:Application/source/menu.c **** 
   9:Application/source/menu.c **** uint8_t menu_init(
  10:Application/source/menu.c ****     const menu_entry_t *entries,
  11:Application/source/menu.c ****     uint8_t entries_count,
  12:Application/source/menu.c ****     menu_handler_t default_handler
  13:Application/source/menu.c **** ) {
  44              		.loc 1 13 3
  45              		.cfi_startproc
  46              		@ args = 0, pretend = 0, frame = 16
  47              		@ frame_needed = 1, uses_anonymous_args = 0
  48              		@ link register save eliminated.
  49 0000 80B4     		push	{r7}
  50              	.LCFI0:
  51              		.cfi_def_cfa_offset 4
ARM GAS  /var/folders/sb/5wbx477s1bdgzdppd6ypx7ym0000gn/T//cccdFglY.s 			page 2


  52              		.cfi_offset 7, -4
  53 0002 85B0     		sub	sp, sp, #20
  54              	.LCFI1:
  55              		.cfi_def_cfa_offset 24
  56 0004 00AF     		add	r7, sp, #0
  57              	.LCFI2:
  58              		.cfi_def_cfa_register 7
  59 0006 F860     		str	r0, [r7, #12]
  60 0008 0B46     		mov	r3, r1
  61 000a 7A60     		str	r2, [r7, #4]
  62 000c FB72     		strb	r3, [r7, #11]
  14:Application/source/menu.c ****     if (entries == NULL || default_handler == NULL || menu_entries != NULL) {
  63              		.loc 1 14 8
  64 000e FB68     		ldr	r3, [r7, #12]
  65 0010 002B     		cmp	r3, #0
  66 0012 06D0     		beq	.L2
  67              		.loc 1 14 25 discriminator 1
  68 0014 7B68     		ldr	r3, [r7, #4]
  69 0016 002B     		cmp	r3, #0
  70 0018 03D0     		beq	.L2
  71              		.loc 1 14 68 discriminator 2
  72 001a 0A4B     		ldr	r3, .L5
  73 001c 1B68     		ldr	r3, [r3]
  74              		.loc 1 14 52 discriminator 2
  75 001e 002B     		cmp	r3, #0
  76 0020 01D0     		beq	.L3
  77              	.L2:
  15:Application/source/menu.c ****         return 1;
  78              		.loc 1 15 16
  79 0022 0123     		movs	r3, #1
  80 0024 09E0     		b	.L4
  81              	.L3:
  16:Application/source/menu.c ****     }
  17:Application/source/menu.c **** 
  18:Application/source/menu.c ****     menu_command_count = entries_count;
  82              		.loc 1 18 24
  83 0026 084A     		ldr	r2, .L5+4
  84 0028 FB7A     		ldrb	r3, [r7, #11]
  85 002a 1370     		strb	r3, [r2]
  19:Application/source/menu.c ****     menu_entries = entries;
  86              		.loc 1 19 18
  87 002c 054A     		ldr	r2, .L5
  88 002e FB68     		ldr	r3, [r7, #12]
  89 0030 1360     		str	r3, [r2]
  20:Application/source/menu.c ****     menu_default_handler = default_handler;
  90              		.loc 1 20 26
  91 0032 064A     		ldr	r2, .L5+8
  92 0034 7B68     		ldr	r3, [r7, #4]
  93 0036 1360     		str	r3, [r2]
  21:Application/source/menu.c **** 
  22:Application/source/menu.c ****     return 0;
  94              		.loc 1 22 12
  95 0038 0023     		movs	r3, #0
  96              	.L4:
  23:Application/source/menu.c **** }
  97              		.loc 1 23 1
  98 003a 1846     		mov	r0, r3
ARM GAS  /var/folders/sb/5wbx477s1bdgzdppd6ypx7ym0000gn/T//cccdFglY.s 			page 3


  99 003c 1437     		adds	r7, r7, #20
 100              	.LCFI3:
 101              		.cfi_def_cfa_offset 4
 102 003e BD46     		mov	sp, r7
 103              	.LCFI4:
 104              		.cfi_def_cfa_register 13
 105              		@ sp needed
 106 0040 80BC     		pop	{r7}
 107              	.LCFI5:
 108              		.cfi_restore 7
 109              		.cfi_def_cfa_offset 0
 110 0042 7047     		bx	lr
 111              	.L6:
 112              		.align	2
 113              	.L5:
 114 0044 00000000 		.word	menu_entries
 115 0048 00000000 		.word	menu_command_count
 116 004c 00000000 		.word	menu_default_handler
 117              		.cfi_endproc
 118              	.LFE0:
 120              		.section	.text.find_menu_handler,"ax",%progbits
 121              		.align	1
 122              		.global	find_menu_handler
 123              		.syntax unified
 124              		.thumb
 125              		.thumb_func
 127              	find_menu_handler:
 128              	.LFB1:
  24:Application/source/menu.c **** 
  25:Application/source/menu.c **** menu_handler_t find_menu_handler(const char *opcode) {
 129              		.loc 1 25 54
 130              		.cfi_startproc
 131              		@ args = 0, pretend = 0, frame = 16
 132              		@ frame_needed = 1, uses_anonymous_args = 0
 133 0000 80B5     		push	{r7, lr}
 134              	.LCFI6:
 135              		.cfi_def_cfa_offset 8
 136              		.cfi_offset 7, -8
 137              		.cfi_offset 14, -4
 138 0002 84B0     		sub	sp, sp, #16
 139              	.LCFI7:
 140              		.cfi_def_cfa_offset 24
 141 0004 00AF     		add	r7, sp, #0
 142              	.LCFI8:
 143              		.cfi_def_cfa_register 7
 144 0006 7860     		str	r0, [r7, #4]
  26:Application/source/menu.c ****     if (opcode == NULL) {
 145              		.loc 1 26 8
 146 0008 7B68     		ldr	r3, [r7, #4]
 147 000a 002B     		cmp	r3, #0
 148 000c 01D1     		bne	.L8
  27:Application/source/menu.c ****         return NULL;
 149              		.loc 1 27 16
 150 000e 0023     		movs	r3, #0
 151 0010 26E0     		b	.L9
 152              	.L8:
  28:Application/source/menu.c ****     }
ARM GAS  /var/folders/sb/5wbx477s1bdgzdppd6ypx7ym0000gn/T//cccdFglY.s 			page 4


  29:Application/source/menu.c **** 
  30:Application/source/menu.c ****     menu_handler_t handler = NULL;
 153              		.loc 1 30 20
 154 0012 0023     		movs	r3, #0
 155 0014 FB60     		str	r3, [r7, #12]
 156              	.LBB2:
  31:Application/source/menu.c ****     for (uint8_t i = 0; i < menu_command_count; i++) {
 157              		.loc 1 31 18
 158 0016 0023     		movs	r3, #0
 159 0018 FB72     		strb	r3, [r7, #11]
 160              		.loc 1 31 5
 161 001a 1BE0     		b	.L10
 162              	.L13:
  32:Application/source/menu.c ****         if (strcmp(menu_entries[i].opcode, opcode)) {
 163              		.loc 1 32 32
 164 001c 124B     		ldr	r3, .L14
 165 001e 1A68     		ldr	r2, [r3]
 166 0020 FB7A     		ldrb	r3, [r7, #11]	@ zero_extendqisi2
 167 0022 A421     		movs	r1, #164
 168 0024 01FB03F3 		mul	r3, r1, r3
 169 0028 1344     		add	r3, r3, r2
 170              		.loc 1 32 13
 171 002a 7968     		ldr	r1, [r7, #4]
 172 002c 1846     		mov	r0, r3
 173 002e FFF7FEFF 		bl	strcmp
 174 0032 0346     		mov	r3, r0
 175              		.loc 1 32 12 discriminator 1
 176 0034 002B     		cmp	r3, #0
 177 0036 0AD0     		beq	.L11
  33:Application/source/menu.c ****             handler = menu_entries[i].handler;
 178              		.loc 1 33 35
 179 0038 0B4B     		ldr	r3, .L14
 180 003a 1A68     		ldr	r2, [r3]
 181 003c FB7A     		ldrb	r3, [r7, #11]	@ zero_extendqisi2
 182 003e A421     		movs	r1, #164
 183 0040 01FB03F3 		mul	r3, r1, r3
 184 0044 1344     		add	r3, r3, r2
 185              		.loc 1 33 21
 186 0046 D3F8A030 		ldr	r3, [r3, #160]
 187 004a FB60     		str	r3, [r7, #12]
  34:Application/source/menu.c ****             break;
 188              		.loc 1 34 13
 189 004c 07E0     		b	.L12
 190              	.L11:
  31:Application/source/menu.c ****         if (strcmp(menu_entries[i].opcode, opcode)) {
 191              		.loc 1 31 50 discriminator 2
 192 004e FB7A     		ldrb	r3, [r7, #11]	@ zero_extendqisi2
 193 0050 0133     		adds	r3, r3, #1
 194 0052 FB72     		strb	r3, [r7, #11]
 195              	.L10:
  31:Application/source/menu.c ****         if (strcmp(menu_entries[i].opcode, opcode)) {
 196              		.loc 1 31 27 discriminator 1
 197 0054 054B     		ldr	r3, .L14+4
 198 0056 1B78     		ldrb	r3, [r3]	@ zero_extendqisi2
 199 0058 FA7A     		ldrb	r2, [r7, #11]	@ zero_extendqisi2
 200 005a 9A42     		cmp	r2, r3
 201 005c DED3     		bcc	.L13
ARM GAS  /var/folders/sb/5wbx477s1bdgzdppd6ypx7ym0000gn/T//cccdFglY.s 			page 5


 202              	.L12:
 203              	.LBE2:
  35:Application/source/menu.c ****         }
  36:Application/source/menu.c ****     }
  37:Application/source/menu.c **** 
  38:Application/source/menu.c ****     return handler;
 204              		.loc 1 38 12
 205 005e FB68     		ldr	r3, [r7, #12]
 206              	.L9:
  39:Application/source/menu.c **** }
 207              		.loc 1 39 1
 208 0060 1846     		mov	r0, r3
 209 0062 1037     		adds	r7, r7, #16
 210              	.LCFI9:
 211              		.cfi_def_cfa_offset 8
 212 0064 BD46     		mov	sp, r7
 213              	.LCFI10:
 214              		.cfi_def_cfa_register 13
 215              		@ sp needed
 216 0066 80BD     		pop	{r7, pc}
 217              	.L15:
 218              		.align	2
 219              	.L14:
 220 0068 00000000 		.word	menu_entries
 221 006c 00000000 		.word	menu_command_count
 222              		.cfi_endproc
 223              	.LFE1:
 225              		.section	.text.menu_execute,"ax",%progbits
 226              		.align	1
 227              		.global	menu_execute
 228              		.syntax unified
 229              		.thumb
 230              		.thumb_func
 232              	menu_execute:
 233              	.LFB2:
  40:Application/source/menu.c **** 
  41:Application/source/menu.c **** uint8_t menu_execute(const char *opcode) {
 234              		.loc 1 41 42
 235              		.cfi_startproc
 236              		@ args = 0, pretend = 0, frame = 16
 237              		@ frame_needed = 1, uses_anonymous_args = 0
 238 0000 80B5     		push	{r7, lr}
 239              	.LCFI11:
 240              		.cfi_def_cfa_offset 8
 241              		.cfi_offset 7, -8
 242              		.cfi_offset 14, -4
 243 0002 84B0     		sub	sp, sp, #16
 244              	.LCFI12:
 245              		.cfi_def_cfa_offset 24
 246 0004 00AF     		add	r7, sp, #0
 247              	.LCFI13:
 248              		.cfi_def_cfa_register 7
 249 0006 7860     		str	r0, [r7, #4]
  42:Application/source/menu.c ****     if (menu_entries == NULL) {
 250              		.loc 1 42 22
 251 0008 0B4B     		ldr	r3, .L20
 252 000a 1B68     		ldr	r3, [r3]
ARM GAS  /var/folders/sb/5wbx477s1bdgzdppd6ypx7ym0000gn/T//cccdFglY.s 			page 6


 253              		.loc 1 42 8
 254 000c 002B     		cmp	r3, #0
 255 000e 01D1     		bne	.L17
  43:Application/source/menu.c ****         return 1;
 256              		.loc 1 43 16
 257 0010 0123     		movs	r3, #1
 258 0012 0CE0     		b	.L18
 259              	.L17:
  44:Application/source/menu.c ****     }
  45:Application/source/menu.c **** 
  46:Application/source/menu.c ****     menu_handler_t handler = find_menu_handler(opcode);
 260              		.loc 1 46 30
 261 0014 7868     		ldr	r0, [r7, #4]
 262 0016 FFF7FEFF 		bl	find_menu_handler
 263 001a F860     		str	r0, [r7, #12]
  47:Application/source/menu.c ****     if (handler == NULL) {
 264              		.loc 1 47 8
 265 001c FB68     		ldr	r3, [r7, #12]
 266 001e 002B     		cmp	r3, #0
 267 0020 02D1     		bne	.L19
  48:Application/source/menu.c ****         handler = menu_default_handler;
 268              		.loc 1 48 17
 269 0022 064B     		ldr	r3, .L20+4
 270 0024 1B68     		ldr	r3, [r3]
 271 0026 FB60     		str	r3, [r7, #12]
 272              	.L19:
  49:Application/source/menu.c ****     }
  50:Application/source/menu.c **** 
  51:Application/source/menu.c ****     return handler();
 273              		.loc 1 51 12
 274 0028 FB68     		ldr	r3, [r7, #12]
 275 002a 9847     		blx	r3
 276              	.LVL0:
 277 002c 0346     		mov	r3, r0
 278              	.L18:
  52:Application/source/menu.c **** }
 279              		.loc 1 52 1
 280 002e 1846     		mov	r0, r3
 281 0030 1037     		adds	r7, r7, #16
 282              	.LCFI14:
 283              		.cfi_def_cfa_offset 8
 284 0032 BD46     		mov	sp, r7
 285              	.LCFI15:
 286              		.cfi_def_cfa_register 13
 287              		@ sp needed
 288 0034 80BD     		pop	{r7, pc}
 289              	.L21:
 290 0036 00BF     		.align	2
 291              	.L20:
 292 0038 00000000 		.word	menu_entries
 293 003c 00000000 		.word	menu_default_handler
 294              		.cfi_endproc
 295              	.LFE2:
 297              		.section	.rodata
 298              		.align	2
 299              	.LC0:
 300 0000 1B5B324A 		.ascii	"\033[2J\033[H\000"
ARM GAS  /var/folders/sb/5wbx477s1bdgzdppd6ypx7ym0000gn/T//cccdFglY.s 			page 7


 300      1B5B4800 
 301              		.align	2
 302              	.LC1:
 303 0008 1B5B3130 		.ascii	"\033[10;20H\000"
 303      3B323048 
 303      00
 304 0011 000000   		.align	2
 305              	.LC2:
 306 0014 2E2000   		.ascii	". \000"
 307 0017 00       		.align	2
 308              	.LC3:
 309 0018 0A0D00   		.ascii	"\012\015\000"
 310 001b 00       		.align	2
 311              	.LC4:
 312 001c 636D643E 		.ascii	"cmd>\000"
 312      00
 313              		.section	.text.menu_print,"ax",%progbits
 314              		.align	1
 315              		.global	menu_print
 316              		.syntax unified
 317              		.thumb
 318              		.thumb_func
 320              	menu_print:
 321              	.LFB3:
  53:Application/source/menu.c **** 
  54:Application/source/menu.c **** void menu_print(menu_printer_t print) {
 322              		.loc 1 54 39
 323              		.cfi_startproc
 324              		@ args = 0, pretend = 0, frame = 16
 325              		@ frame_needed = 1, uses_anonymous_args = 0
 326 0000 80B5     		push	{r7, lr}
 327              	.LCFI16:
 328              		.cfi_def_cfa_offset 8
 329              		.cfi_offset 7, -8
 330              		.cfi_offset 14, -4
 331 0002 84B0     		sub	sp, sp, #16
 332              	.LCFI17:
 333              		.cfi_def_cfa_offset 24
 334 0004 00AF     		add	r7, sp, #0
 335              	.LCFI18:
 336              		.cfi_def_cfa_register 7
 337 0006 7860     		str	r0, [r7, #4]
  55:Application/source/menu.c ****     if (print == NULL) {
 338              		.loc 1 55 8
 339 0008 7B68     		ldr	r3, [r7, #4]
 340 000a 002B     		cmp	r3, #0
 341 000c 31D0     		beq	.L27
  56:Application/source/menu.c ****         return;
  57:Application/source/menu.c ****     }
  58:Application/source/menu.c **** 
  59:Application/source/menu.c ****     print("\033[2J\033[H");
 342              		.loc 1 59 5
 343 000e 7B68     		ldr	r3, [r7, #4]
 344 0010 1A48     		ldr	r0, .L28
 345 0012 9847     		blx	r3
 346              	.LVL1:
  60:Application/source/menu.c ****     print("\033[10;20H");
ARM GAS  /var/folders/sb/5wbx477s1bdgzdppd6ypx7ym0000gn/T//cccdFglY.s 			page 8


 347              		.loc 1 60 5
 348 0014 7B68     		ldr	r3, [r7, #4]
 349 0016 1A48     		ldr	r0, .L28+4
 350 0018 9847     		blx	r3
 351              	.LVL2:
 352              	.LBB3:
  61:Application/source/menu.c ****     
  62:Application/source/menu.c ****     for (uint8_t i = 0; i < menu_command_count; i++) {
 353              		.loc 1 62 18
 354 001a 0023     		movs	r3, #0
 355 001c FB73     		strb	r3, [r7, #15]
 356              		.loc 1 62 5
 357 001e 1FE0     		b	.L25
 358              	.L26:
  63:Application/source/menu.c ****         // print("%s. %s\n", menu_entries[i].opcode, menu_entries[i].description);
  64:Application/source/menu.c ****         print(menu_entries[i].opcode);
 359              		.loc 1 64 27
 360 0020 184B     		ldr	r3, .L28+8
 361 0022 1A68     		ldr	r2, [r3]
 362 0024 FB7B     		ldrb	r3, [r7, #15]	@ zero_extendqisi2
 363 0026 A421     		movs	r1, #164
 364 0028 01FB03F3 		mul	r3, r1, r3
 365 002c 1344     		add	r3, r3, r2
 366              		.loc 1 64 30
 367 002e 1A46     		mov	r2, r3
 368              		.loc 1 64 9
 369 0030 7B68     		ldr	r3, [r7, #4]
 370 0032 1046     		mov	r0, r2
 371 0034 9847     		blx	r3
 372              	.LVL3:
  65:Application/source/menu.c ****         print(". ");
 373              		.loc 1 65 9
 374 0036 7B68     		ldr	r3, [r7, #4]
 375 0038 1348     		ldr	r0, .L28+12
 376 003a 9847     		blx	r3
 377              	.LVL4:
  66:Application/source/menu.c ****         print(menu_entries[i].description);
 378              		.loc 1 66 27
 379 003c 114B     		ldr	r3, .L28+8
 380 003e 1A68     		ldr	r2, [r3]
 381 0040 FB7B     		ldrb	r3, [r7, #15]	@ zero_extendqisi2
 382 0042 A421     		movs	r1, #164
 383 0044 01FB03F3 		mul	r3, r1, r3
 384 0048 1344     		add	r3, r3, r2
 385              		.loc 1 66 30
 386 004a 03F12002 		add	r2, r3, #32
 387              		.loc 1 66 9
 388 004e 7B68     		ldr	r3, [r7, #4]
 389 0050 1046     		mov	r0, r2
 390 0052 9847     		blx	r3
 391              	.LVL5:
  67:Application/source/menu.c ****         print("\n\r");
 392              		.loc 1 67 9
 393 0054 7B68     		ldr	r3, [r7, #4]
 394 0056 0D48     		ldr	r0, .L28+16
 395 0058 9847     		blx	r3
 396              	.LVL6:
ARM GAS  /var/folders/sb/5wbx477s1bdgzdppd6ypx7ym0000gn/T//cccdFglY.s 			page 9


  62:Application/source/menu.c ****         // print("%s. %s\n", menu_entries[i].opcode, menu_entries[i].description);
 397              		.loc 1 62 50 discriminator 3
 398 005a FB7B     		ldrb	r3, [r7, #15]	@ zero_extendqisi2
 399 005c 0133     		adds	r3, r3, #1
 400 005e FB73     		strb	r3, [r7, #15]
 401              	.L25:
  62:Application/source/menu.c ****         // print("%s. %s\n", menu_entries[i].opcode, menu_entries[i].description);
 402              		.loc 1 62 27 discriminator 1
 403 0060 0B4B     		ldr	r3, .L28+20
 404 0062 1B78     		ldrb	r3, [r3]	@ zero_extendqisi2
 405 0064 FA7B     		ldrb	r2, [r7, #15]	@ zero_extendqisi2
 406 0066 9A42     		cmp	r2, r3
 407 0068 DAD3     		bcc	.L26
 408              	.LBE3:
  68:Application/source/menu.c ****     }
  69:Application/source/menu.c ****     print("cmd>");
 409              		.loc 1 69 5
 410 006a 7B68     		ldr	r3, [r7, #4]
 411 006c 0948     		ldr	r0, .L28+24
 412 006e 9847     		blx	r3
 413              	.LVL7:
 414 0070 00E0     		b	.L22
 415              	.L27:
  56:Application/source/menu.c ****     }
 416              		.loc 1 56 9
 417 0072 00BF     		nop
 418              	.L22:
  70:Application/source/menu.c **** }...
 419              		.loc 1 70 1
 420 0074 1037     		adds	r7, r7, #16
 421              	.LCFI19:
 422              		.cfi_def_cfa_offset 8
 423 0076 BD46     		mov	sp, r7
 424              	.LCFI20:
 425              		.cfi_def_cfa_register 13
 426              		@ sp needed
 427 0078 80BD     		pop	{r7, pc}
 428              	.L29:
 429 007a 00BF     		.align	2
 430              	.L28:
 431 007c 00000000 		.word	.LC0
 432 0080 08000000 		.word	.LC1
 433 0084 00000000 		.word	menu_entries
 434 0088 14000000 		.word	.LC2
 435 008c 18000000 		.word	.LC3
 436 0090 00000000 		.word	menu_command_count
 437 0094 1C000000 		.word	.LC4
 438              		.cfi_endproc
 439              	.LFE3:
 441              		.text
 442              	.Letext0:
 443              		.file 2 "/Applications/ArmGNUToolchain/14.3.rel1/arm-none-eabi/arm-none-eabi/include/machine/_defa
 444              		.file 3 "/Applications/ArmGNUToolchain/14.3.rel1/arm-none-eabi/arm-none-eabi/include/sys/_stdint.h
 445              		.file 4 "Application/include/menu.h"
 446              		.file 5 "/Applications/ArmGNUToolchain/14.3.rel1/arm-none-eabi/arm-none-eabi/include/string.h"
ARM GAS  /var/folders/sb/5wbx477s1bdgzdppd6ypx7ym0000gn/T//cccdFglY.s 			page 10

