ARM GAS  /var/folders/sb/5wbx477s1bdgzdppd6ypx7ym0000gn/T//ccE35bpC.s 			page 1


   1              		.cpu cortex-m3
   2              		.arch armv7-m
   3              		.fpu softvfp
   4              		.eabi_attribute 20, 1
   5              		.eabi_attribute 21, 1
   6              		.eabi_attribute 23, 3
   7              		.eabi_attribute 24, 1
   8              		.eabi_attribute 25, 1
   9              		.eabi_attribute 26, 1
  10              		.eabi_attribute 30, 6
  11              		.eabi_attribute 34, 1
  12              		.eabi_attribute 18, 4
  13              		.file	"stm32f1xx_hal_msp.c"
  14              		.text
  15              	.Ltext0:
  16              		.cfi_sections	.debug_frame
  17              		.file 1 "Core/Src/stm32f1xx_hal_msp.c"
  18              		.section	.text.HAL_MspInit,"ax",%progbits
  19              		.align	1
  20              		.global	HAL_MspInit
  21              		.syntax unified
  22              		.thumb
  23              		.thumb_func
  25              	HAL_MspInit:
  26              	.LFB65:
   1:Core/Src/stm32f1xx_hal_msp.c **** /* USER CODE BEGIN Header */
   2:Core/Src/stm32f1xx_hal_msp.c **** /**
   3:Core/Src/stm32f1xx_hal_msp.c ****   ******************************************************************************
   4:Core/Src/stm32f1xx_hal_msp.c ****   * @file         stm32f1xx_hal_msp.c
   5:Core/Src/stm32f1xx_hal_msp.c ****   * @brief        This file provides code for the MSP Initialization
   6:Core/Src/stm32f1xx_hal_msp.c ****   *               and de-Initialization codes.
   7:Core/Src/stm32f1xx_hal_msp.c ****   ******************************************************************************
   8:Core/Src/stm32f1xx_hal_msp.c ****   * @attention
   9:Core/Src/stm32f1xx_hal_msp.c ****   *
  10:Core/Src/stm32f1xx_hal_msp.c ****   * Copyright (c) 2026 STMicroelectronics.
  11:Core/Src/stm32f1xx_hal_msp.c ****   * All rights reserved.
  12:Core/Src/stm32f1xx_hal_msp.c ****   *
  13:Core/Src/stm32f1xx_hal_msp.c ****   * This software is licensed under terms that can be found in the LICENSE file
  14:Core/Src/stm32f1xx_hal_msp.c ****   * in the root directory of this software component.
  15:Core/Src/stm32f1xx_hal_msp.c ****   * If no LICENSE file comes with this software, it is provided AS-IS.
  16:Core/Src/stm32f1xx_hal_msp.c ****   *
  17:Core/Src/stm32f1xx_hal_msp.c ****   ******************************************************************************
  18:Core/Src/stm32f1xx_hal_msp.c ****   */
  19:Core/Src/stm32f1xx_hal_msp.c **** /* USER CODE END Header */
  20:Core/Src/stm32f1xx_hal_msp.c **** 
  21:Core/Src/stm32f1xx_hal_msp.c **** /* Includes ------------------------------------------------------------------*/
  22:Core/Src/stm32f1xx_hal_msp.c **** #include "main.h"
  23:Core/Src/stm32f1xx_hal_msp.c **** /* USER CODE BEGIN Includes */
  24:Core/Src/stm32f1xx_hal_msp.c **** 
  25:Core/Src/stm32f1xx_hal_msp.c **** /* USER CODE END Includes */
  26:Core/Src/stm32f1xx_hal_msp.c **** 
  27:Core/Src/stm32f1xx_hal_msp.c **** /* Private typedef -----------------------------------------------------------*/
  28:Core/Src/stm32f1xx_hal_msp.c **** /* USER CODE BEGIN TD */
  29:Core/Src/stm32f1xx_hal_msp.c **** 
  30:Core/Src/stm32f1xx_hal_msp.c **** /* USER CODE END TD */
  31:Core/Src/stm32f1xx_hal_msp.c **** 
  32:Core/Src/stm32f1xx_hal_msp.c **** /* Private define ------------------------------------------------------------*/
ARM GAS  /var/folders/sb/5wbx477s1bdgzdppd6ypx7ym0000gn/T//ccE35bpC.s 			page 2


  33:Core/Src/stm32f1xx_hal_msp.c **** /* USER CODE BEGIN Define */
  34:Core/Src/stm32f1xx_hal_msp.c **** 
  35:Core/Src/stm32f1xx_hal_msp.c **** /* USER CODE END Define */
  36:Core/Src/stm32f1xx_hal_msp.c **** 
  37:Core/Src/stm32f1xx_hal_msp.c **** /* Private macro -------------------------------------------------------------*/
  38:Core/Src/stm32f1xx_hal_msp.c **** /* USER CODE BEGIN Macro */
  39:Core/Src/stm32f1xx_hal_msp.c **** 
  40:Core/Src/stm32f1xx_hal_msp.c **** /* USER CODE END Macro */
  41:Core/Src/stm32f1xx_hal_msp.c **** 
  42:Core/Src/stm32f1xx_hal_msp.c **** /* Private variables ---------------------------------------------------------*/
  43:Core/Src/stm32f1xx_hal_msp.c **** /* USER CODE BEGIN PV */
  44:Core/Src/stm32f1xx_hal_msp.c **** 
  45:Core/Src/stm32f1xx_hal_msp.c **** /* USER CODE END PV */
  46:Core/Src/stm32f1xx_hal_msp.c **** 
  47:Core/Src/stm32f1xx_hal_msp.c **** /* Private function prototypes -----------------------------------------------*/
  48:Core/Src/stm32f1xx_hal_msp.c **** /* USER CODE BEGIN PFP */
  49:Core/Src/stm32f1xx_hal_msp.c **** 
  50:Core/Src/stm32f1xx_hal_msp.c **** /* USER CODE END PFP */
  51:Core/Src/stm32f1xx_hal_msp.c **** 
  52:Core/Src/stm32f1xx_hal_msp.c **** /* External functions --------------------------------------------------------*/
  53:Core/Src/stm32f1xx_hal_msp.c **** /* USER CODE BEGIN ExternalFunctions */
  54:Core/Src/stm32f1xx_hal_msp.c **** 
  55:Core/Src/stm32f1xx_hal_msp.c **** /* USER CODE END ExternalFunctions */
  56:Core/Src/stm32f1xx_hal_msp.c **** 
  57:Core/Src/stm32f1xx_hal_msp.c **** /* USER CODE BEGIN 0 */
  58:Core/Src/stm32f1xx_hal_msp.c **** 
  59:Core/Src/stm32f1xx_hal_msp.c **** /* USER CODE END 0 */
  60:Core/Src/stm32f1xx_hal_msp.c **** /**
  61:Core/Src/stm32f1xx_hal_msp.c ****   * Initializes the Global MSP.
  62:Core/Src/stm32f1xx_hal_msp.c ****   */
  63:Core/Src/stm32f1xx_hal_msp.c **** void HAL_MspInit(void)
  64:Core/Src/stm32f1xx_hal_msp.c **** {
  27              		.loc 1 64 1
  28              		.cfi_startproc
  29              		@ args = 0, pretend = 0, frame = 16
  30              		@ frame_needed = 1, uses_anonymous_args = 0
  31              		@ link register save eliminated.
  32 0000 80B4     		push	{r7}
  33              	.LCFI0:
  34              		.cfi_def_cfa_offset 4
  35              		.cfi_offset 7, -4
  36 0002 85B0     		sub	sp, sp, #20
  37              	.LCFI1:
  38              		.cfi_def_cfa_offset 24
  39 0004 00AF     		add	r7, sp, #0
  40              	.LCFI2:
  41              		.cfi_def_cfa_register 7
  42              	.LBB2:
  65:Core/Src/stm32f1xx_hal_msp.c **** 
  66:Core/Src/stm32f1xx_hal_msp.c ****   /* USER CODE BEGIN MspInit 0 */
  67:Core/Src/stm32f1xx_hal_msp.c **** 
  68:Core/Src/stm32f1xx_hal_msp.c ****   /* USER CODE END MspInit 0 */
  69:Core/Src/stm32f1xx_hal_msp.c **** 
  70:Core/Src/stm32f1xx_hal_msp.c ****   __HAL_RCC_AFIO_CLK_ENABLE();
  43              		.loc 1 70 3
  44 0006 154B     		ldr	r3, .L2
  45 0008 9B69     		ldr	r3, [r3, #24]
ARM GAS  /var/folders/sb/5wbx477s1bdgzdppd6ypx7ym0000gn/T//ccE35bpC.s 			page 3


  46 000a 144A     		ldr	r2, .L2
  47 000c 43F00103 		orr	r3, r3, #1
  48 0010 9361     		str	r3, [r2, #24]
  49 0012 124B     		ldr	r3, .L2
  50 0014 9B69     		ldr	r3, [r3, #24]
  51 0016 03F00103 		and	r3, r3, #1
  52 001a BB60     		str	r3, [r7, #8]
  53 001c BB68     		ldr	r3, [r7, #8]
  54              	.LBE2:
  55              	.LBB3:
  71:Core/Src/stm32f1xx_hal_msp.c ****   __HAL_RCC_PWR_CLK_ENABLE();
  56              		.loc 1 71 3
  57 001e 0F4B     		ldr	r3, .L2
  58 0020 DB69     		ldr	r3, [r3, #28]
  59 0022 0E4A     		ldr	r2, .L2
  60 0024 43F08053 		orr	r3, r3, #268435456
  61 0028 D361     		str	r3, [r2, #28]
  62 002a 0C4B     		ldr	r3, .L2
  63 002c DB69     		ldr	r3, [r3, #28]
  64 002e 03F08053 		and	r3, r3, #268435456
  65 0032 7B60     		str	r3, [r7, #4]
  66 0034 7B68     		ldr	r3, [r7, #4]
  67              	.LBE3:
  68              	.LBB4:
  72:Core/Src/stm32f1xx_hal_msp.c **** 
  73:Core/Src/stm32f1xx_hal_msp.c ****   /* System interrupt init*/
  74:Core/Src/stm32f1xx_hal_msp.c **** 
  75:Core/Src/stm32f1xx_hal_msp.c ****   /** DISABLE: JTAG-DP Disabled and SW-DP Disabled
  76:Core/Src/stm32f1xx_hal_msp.c ****   */
  77:Core/Src/stm32f1xx_hal_msp.c ****   __HAL_AFIO_REMAP_SWJ_DISABLE();
  69              		.loc 1 77 3
  70 0036 0A4B     		ldr	r3, .L2+4
  71 0038 5B68     		ldr	r3, [r3, #4]
  72 003a FB60     		str	r3, [r7, #12]
  73 003c FB68     		ldr	r3, [r7, #12]
  74 003e 23F0E063 		bic	r3, r3, #117440512
  75 0042 FB60     		str	r3, [r7, #12]
  76 0044 FB68     		ldr	r3, [r7, #12]
  77 0046 43F08063 		orr	r3, r3, #67108864
  78 004a FB60     		str	r3, [r7, #12]
  79 004c 044A     		ldr	r2, .L2+4
  80 004e FB68     		ldr	r3, [r7, #12]
  81 0050 5360     		str	r3, [r2, #4]
  82              	.LBE4:
  78:Core/Src/stm32f1xx_hal_msp.c **** 
  79:Core/Src/stm32f1xx_hal_msp.c ****   /* USER CODE BEGIN MspInit 1 */
  80:Core/Src/stm32f1xx_hal_msp.c **** 
  81:Core/Src/stm32f1xx_hal_msp.c ****   /* USER CODE END MspInit 1 */
  82:Core/Src/stm32f1xx_hal_msp.c **** }
  83              		.loc 1 82 1
  84 0052 00BF     		nop
  85 0054 1437     		adds	r7, r7, #20
  86              	.LCFI3:
  87              		.cfi_def_cfa_offset 4
  88 0056 BD46     		mov	sp, r7
  89              	.LCFI4:
  90              		.cfi_def_cfa_register 13
ARM GAS  /var/folders/sb/5wbx477s1bdgzdppd6ypx7ym0000gn/T//ccE35bpC.s 			page 4


  91              		@ sp needed
  92 0058 80BC     		pop	{r7}
  93              	.LCFI5:
  94              		.cfi_restore 7
  95              		.cfi_def_cfa_offset 0
  96 005a 7047     		bx	lr
  97              	.L3:
  98              		.align	2
  99              	.L2:
 100 005c 00100240 		.word	1073876992
 101 0060 00000140 		.word	1073807360
 102              		.cfi_endproc
 103              	.LFE65:
 105              		.section	.text.HAL_UART_MspInit,"ax",%progbits
 106              		.align	1
 107              		.global	HAL_UART_MspInit
 108              		.syntax unified
 109              		.thumb
 110              		.thumb_func
 112              	HAL_UART_MspInit:
 113              	.LFB66:
  83:Core/Src/stm32f1xx_hal_msp.c **** 
  84:Core/Src/stm32f1xx_hal_msp.c **** /**
  85:Core/Src/stm32f1xx_hal_msp.c ****   * @brief UART MSP Initialization
  86:Core/Src/stm32f1xx_hal_msp.c ****   * This function configures the hardware resources used in this example
  87:Core/Src/stm32f1xx_hal_msp.c ****   * @param huart: UART handle pointer
  88:Core/Src/stm32f1xx_hal_msp.c ****   * @retval None
  89:Core/Src/stm32f1xx_hal_msp.c ****   */
  90:Core/Src/stm32f1xx_hal_msp.c **** void HAL_UART_MspInit(UART_HandleTypeDef* huart)
  91:Core/Src/stm32f1xx_hal_msp.c **** {
 114              		.loc 1 91 1
 115              		.cfi_startproc
 116              		@ args = 0, pretend = 0, frame = 32
 117              		@ frame_needed = 1, uses_anonymous_args = 0
 118 0000 80B5     		push	{r7, lr}
 119              	.LCFI6:
 120              		.cfi_def_cfa_offset 8
 121              		.cfi_offset 7, -8
 122              		.cfi_offset 14, -4
 123 0002 88B0     		sub	sp, sp, #32
 124              	.LCFI7:
 125              		.cfi_def_cfa_offset 40
 126 0004 00AF     		add	r7, sp, #0
 127              	.LCFI8:
 128              		.cfi_def_cfa_register 7
 129 0006 7860     		str	r0, [r7, #4]
  92:Core/Src/stm32f1xx_hal_msp.c ****   GPIO_InitTypeDef GPIO_InitStruct = {0};
 130              		.loc 1 92 20
 131 0008 07F11003 		add	r3, r7, #16
 132 000c 0022     		movs	r2, #0
 133 000e 1A60     		str	r2, [r3]
 134 0010 5A60     		str	r2, [r3, #4]
 135 0012 9A60     		str	r2, [r3, #8]
 136 0014 DA60     		str	r2, [r3, #12]
  93:Core/Src/stm32f1xx_hal_msp.c ****   if(huart->Instance==USART1)
 137              		.loc 1 93 11
 138 0016 7B68     		ldr	r3, [r7, #4]
ARM GAS  /var/folders/sb/5wbx477s1bdgzdppd6ypx7ym0000gn/T//ccE35bpC.s 			page 5


 139 0018 1B68     		ldr	r3, [r3]
 140              		.loc 1 93 5
 141 001a 204A     		ldr	r2, .L7
 142 001c 9342     		cmp	r3, r2
 143 001e 39D1     		bne	.L6
 144              	.LBB5:
  94:Core/Src/stm32f1xx_hal_msp.c ****   {
  95:Core/Src/stm32f1xx_hal_msp.c ****     /* USER CODE BEGIN USART1_MspInit 0 */
  96:Core/Src/stm32f1xx_hal_msp.c **** 
  97:Core/Src/stm32f1xx_hal_msp.c ****     /* USER CODE END USART1_MspInit 0 */
  98:Core/Src/stm32f1xx_hal_msp.c ****     /* Peripheral clock enable */
  99:Core/Src/stm32f1xx_hal_msp.c ****     __HAL_RCC_USART1_CLK_ENABLE();
 145              		.loc 1 99 5
 146 0020 1F4B     		ldr	r3, .L7+4
 147 0022 9B69     		ldr	r3, [r3, #24]
 148 0024 1E4A     		ldr	r2, .L7+4
 149 0026 43F48043 		orr	r3, r3, #16384
 150 002a 9361     		str	r3, [r2, #24]
 151 002c 1C4B     		ldr	r3, .L7+4
 152 002e 9B69     		ldr	r3, [r3, #24]
 153 0030 03F48043 		and	r3, r3, #16384
 154 0034 FB60     		str	r3, [r7, #12]
 155 0036 FB68     		ldr	r3, [r7, #12]
 156              	.LBE5:
 157              	.LBB6:
 100:Core/Src/stm32f1xx_hal_msp.c **** 
 101:Core/Src/stm32f1xx_hal_msp.c ****     __HAL_RCC_GPIOA_CLK_ENABLE();
 158              		.loc 1 101 5
 159 0038 194B     		ldr	r3, .L7+4
 160 003a 9B69     		ldr	r3, [r3, #24]
 161 003c 184A     		ldr	r2, .L7+4
 162 003e 43F00403 		orr	r3, r3, #4
 163 0042 9361     		str	r3, [r2, #24]
 164 0044 164B     		ldr	r3, .L7+4
 165 0046 9B69     		ldr	r3, [r3, #24]
 166 0048 03F00403 		and	r3, r3, #4
 167 004c BB60     		str	r3, [r7, #8]
 168 004e BB68     		ldr	r3, [r7, #8]
 169              	.LBE6:
 102:Core/Src/stm32f1xx_hal_msp.c ****     /**USART1 GPIO Configuration
 103:Core/Src/stm32f1xx_hal_msp.c ****     PA9     ------> USART1_TX
 104:Core/Src/stm32f1xx_hal_msp.c ****     PA10     ------> USART1_RX
 105:Core/Src/stm32f1xx_hal_msp.c ****     */
 106:Core/Src/stm32f1xx_hal_msp.c ****     GPIO_InitStruct.Pin = GPIO_PIN_9;
 170              		.loc 1 106 25
 171 0050 4FF40073 		mov	r3, #512
 172 0054 3B61     		str	r3, [r7, #16]
 107:Core/Src/stm32f1xx_hal_msp.c ****     GPIO_InitStruct.Mode = GPIO_MODE_AF_PP;
 173              		.loc 1 107 26
 174 0056 0223     		movs	r3, #2
 175 0058 7B61     		str	r3, [r7, #20]
 108:Core/Src/stm32f1xx_hal_msp.c ****     GPIO_InitStruct.Speed = GPIO_SPEED_FREQ_HIGH;
 176              		.loc 1 108 27
 177 005a 0323     		movs	r3, #3
 178 005c FB61     		str	r3, [r7, #28]
 109:Core/Src/stm32f1xx_hal_msp.c ****     HAL_GPIO_Init(GPIOA, &GPIO_InitStruct);
 179              		.loc 1 109 5
ARM GAS  /var/folders/sb/5wbx477s1bdgzdppd6ypx7ym0000gn/T//ccE35bpC.s 			page 6


 180 005e 07F11003 		add	r3, r7, #16
 181 0062 1946     		mov	r1, r3
 182 0064 0F48     		ldr	r0, .L7+8
 183 0066 FFF7FEFF 		bl	HAL_GPIO_Init
 110:Core/Src/stm32f1xx_hal_msp.c **** 
 111:Core/Src/stm32f1xx_hal_msp.c ****     GPIO_InitStruct.Pin = GPIO_PIN_10;
 184              		.loc 1 111 25
 185 006a 4FF48063 		mov	r3, #1024
 186 006e 3B61     		str	r3, [r7, #16]
 112:Core/Src/stm32f1xx_hal_msp.c ****     GPIO_InitStruct.Mode = GPIO_MODE_INPUT;
 187              		.loc 1 112 26
 188 0070 0023     		movs	r3, #0
 189 0072 7B61     		str	r3, [r7, #20]
 113:Core/Src/stm32f1xx_hal_msp.c ****     GPIO_InitStruct.Pull = GPIO_NOPULL;
 190              		.loc 1 113 26
 191 0074 0023     		movs	r3, #0
 192 0076 BB61     		str	r3, [r7, #24]
 114:Core/Src/stm32f1xx_hal_msp.c ****     HAL_GPIO_Init(GPIOA, &GPIO_InitStruct);
 193              		.loc 1 114 5
 194 0078 07F11003 		add	r3, r7, #16
 195 007c 1946     		mov	r1, r3
 196 007e 0948     		ldr	r0, .L7+8
 197 0080 FFF7FEFF 		bl	HAL_GPIO_Init
 115:Core/Src/stm32f1xx_hal_msp.c **** 
 116:Core/Src/stm32f1xx_hal_msp.c ****     /* USART1 interrupt Init */
 117:Core/Src/stm32f1xx_hal_msp.c ****     HAL_NVIC_SetPriority(USART1_IRQn, 0, 0);
 198              		.loc 1 117 5
 199 0084 0022     		movs	r2, #0
 200 0086 0021     		movs	r1, #0
 201 0088 2520     		movs	r0, #37
 202 008a FFF7FEFF 		bl	HAL_NVIC_SetPriority
 118:Core/Src/stm32f1xx_hal_msp.c ****     HAL_NVIC_EnableIRQ(USART1_IRQn);
 203              		.loc 1 118 5
 204 008e 2520     		movs	r0, #37
 205 0090 FFF7FEFF 		bl	HAL_NVIC_EnableIRQ
 206              	.L6:
 119:Core/Src/stm32f1xx_hal_msp.c ****     /* USER CODE BEGIN USART1_MspInit 1 */
 120:Core/Src/stm32f1xx_hal_msp.c **** 
 121:Core/Src/stm32f1xx_hal_msp.c ****     /* USER CODE END USART1_MspInit 1 */
 122:Core/Src/stm32f1xx_hal_msp.c **** 
 123:Core/Src/stm32f1xx_hal_msp.c ****   }
 124:Core/Src/stm32f1xx_hal_msp.c **** 
 125:Core/Src/stm32f1xx_hal_msp.c **** }
 207              		.loc 1 125 1
 208 0094 00BF     		nop
 209 0096 2037     		adds	r7, r7, #32
 210              	.LCFI9:
 211              		.cfi_def_cfa_offset 8
 212 0098 BD46     		mov	sp, r7
 213              	.LCFI10:
 214              		.cfi_def_cfa_register 13
 215              		@ sp needed
 216 009a 80BD     		pop	{r7, pc}
 217              	.L8:
 218              		.align	2
 219              	.L7:
 220 009c 00380140 		.word	1073821696
ARM GAS  /var/folders/sb/5wbx477s1bdgzdppd6ypx7ym0000gn/T//ccE35bpC.s 			page 7


 221 00a0 00100240 		.word	1073876992
 222 00a4 00080140 		.word	1073809408
 223              		.cfi_endproc
 224              	.LFE66:
 226              		.section	.text.HAL_UART_MspDeInit,"ax",%progbits
 227              		.align	1
 228              		.global	HAL_UART_MspDeInit
 229              		.syntax unified
 230              		.thumb
 231              		.thumb_func
 233              	HAL_UART_MspDeInit:
 234              	.LFB67:
 126:Core/Src/stm32f1xx_hal_msp.c **** 
 127:Core/Src/stm32f1xx_hal_msp.c **** /**
 128:Core/Src/stm32f1xx_hal_msp.c ****   * @brief UART MSP De-Initialization
 129:Core/Src/stm32f1xx_hal_msp.c ****   * This function freeze the hardware resources used in this example
 130:Core/Src/stm32f1xx_hal_msp.c ****   * @param huart: UART handle pointer
 131:Core/Src/stm32f1xx_hal_msp.c ****   * @retval None
 132:Core/Src/stm32f1xx_hal_msp.c ****   */
 133:Core/Src/stm32f1xx_hal_msp.c **** void HAL_UART_MspDeInit(UART_HandleTypeDef* huart)
 134:Core/Src/stm32f1xx_hal_msp.c **** {
 235              		.loc 1 134 1
 236              		.cfi_startproc
 237              		@ args = 0, pretend = 0, frame = 8
 238              		@ frame_needed = 1, uses_anonymous_args = 0
 239 0000 80B5     		push	{r7, lr}
 240              	.LCFI11:
 241              		.cfi_def_cfa_offset 8
 242              		.cfi_offset 7, -8
 243              		.cfi_offset 14, -4
 244 0002 82B0     		sub	sp, sp, #8
 245              	.LCFI12:
 246              		.cfi_def_cfa_offset 16
 247 0004 00AF     		add	r7, sp, #0
 248              	.LCFI13:
 249              		.cfi_def_cfa_register 7
 250 0006 7860     		str	r0, [r7, #4]
 135:Core/Src/stm32f1xx_hal_msp.c ****   if(huart->Instance==USART1)
 251              		.loc 1 135 11
 252 0008 7B68     		ldr	r3, [r7, #4]
 253 000a 1B68     		ldr	r3, [r3]
 254              		.loc 1 135 5
 255 000c 0A4A     		ldr	r2, .L12
 256 000e 9342     		cmp	r3, r2
 257 0010 0DD1     		bne	.L11
 136:Core/Src/stm32f1xx_hal_msp.c ****   {
 137:Core/Src/stm32f1xx_hal_msp.c ****     /* USER CODE BEGIN USART1_MspDeInit 0 */
 138:Core/Src/stm32f1xx_hal_msp.c **** 
 139:Core/Src/stm32f1xx_hal_msp.c ****     /* USER CODE END USART1_MspDeInit 0 */
 140:Core/Src/stm32f1xx_hal_msp.c ****     /* Peripheral clock disable */
 141:Core/Src/stm32f1xx_hal_msp.c ****     __HAL_RCC_USART1_CLK_DISABLE();
 258              		.loc 1 141 5
 259 0012 0A4B     		ldr	r3, .L12+4
 260 0014 9B69     		ldr	r3, [r3, #24]
 261 0016 094A     		ldr	r2, .L12+4
 262 0018 23F48043 		bic	r3, r3, #16384
 263 001c 9361     		str	r3, [r2, #24]
ARM GAS  /var/folders/sb/5wbx477s1bdgzdppd6ypx7ym0000gn/T//ccE35bpC.s 			page 8


 142:Core/Src/stm32f1xx_hal_msp.c **** 
 143:Core/Src/stm32f1xx_hal_msp.c ****     /**USART1 GPIO Configuration
 144:Core/Src/stm32f1xx_hal_msp.c ****     PA9     ------> USART1_TX
 145:Core/Src/stm32f1xx_hal_msp.c ****     PA10     ------> USART1_RX
 146:Core/Src/stm32f1xx_hal_msp.c ****     */
 147:Core/Src/stm32f1xx_hal_msp.c ****     HAL_GPIO_DeInit(GPIOA, GPIO_PIN_9|GPIO_PIN_10);
 264              		.loc 1 147 5
 265 001e 4FF4C061 		mov	r1, #1536
 266 0022 0748     		ldr	r0, .L12+8
 267 0024 FFF7FEFF 		bl	HAL_GPIO_DeInit
 148:Core/Src/stm32f1xx_hal_msp.c **** 
 149:Core/Src/stm32f1xx_hal_msp.c ****     /* USART1 interrupt DeInit */
 150:Core/Src/stm32f1xx_hal_msp.c ****     HAL_NVIC_DisableIRQ(USART1_IRQn);
 268              		.loc 1 150 5
 269 0028 2520     		movs	r0, #37
 270 002a FFF7FEFF 		bl	HAL_NVIC_DisableIRQ
 271              	.L11:
 151:Core/Src/stm32f1xx_hal_msp.c ****     /* USER CODE BEGIN USART1_MspDeInit 1 */
 152:Core/Src/stm32f1xx_hal_msp.c **** 
 153:Core/Src/stm32f1xx_hal_msp.c ****     /* USER CODE END USART1_MspDeInit 1 */
 154:Core/Src/stm32f1xx_hal_msp.c ****   }
 155:Core/Src/stm32f1xx_hal_msp.c **** 
 156:Core/Src/stm32f1xx_hal_msp.c **** }
 272              		.loc 1 156 1
 273 002e 00BF     		nop
 274 0030 0837     		adds	r7, r7, #8
 275              	.LCFI14:
 276              		.cfi_def_cfa_offset 8
 277 0032 BD46     		mov	sp, r7
 278              	.LCFI15:
 279              		.cfi_def_cfa_register 13
 280              		@ sp needed
 281 0034 80BD     		pop	{r7, pc}
 282              	.L13:
 283 0036 00BF     		.align	2
 284              	.L12:
 285 0038 00380140 		.word	1073821696
 286 003c 00100240 		.word	1073876992
 287 0040 00080140 		.word	1073809408
 288              		.cfi_endproc
 289              	.LFE67:
 291              		.text
 292              	.Letext0:
 293              		.file 2 "Drivers/CMSIS/Device/ST/STM32F1xx/Include/stm32f103xb.h"
 294              		.file 3 "/Applications/ArmGNUToolchain/14.3.rel1/arm-none-eabi/arm-none-eabi/include/machine/_defa
 295              		.file 4 "/Applications/ArmGNUToolchain/14.3.rel1/arm-none-eabi/arm-none-eabi/include/sys/_stdint.h
 296              		.file 5 "Drivers/STM32F1xx_HAL_Driver/Inc/stm32f1xx_hal_def.h"
 297              		.file 6 "Drivers/STM32F1xx_HAL_Driver/Inc/stm32f1xx_hal_gpio.h"
 298              		.file 7 "Drivers/STM32F1xx_HAL_Driver/Inc/stm32f1xx_hal_dma.h"
 299              		.file 8 "Drivers/STM32F1xx_HAL_Driver/Inc/stm32f1xx_hal_uart.h"
 300              		.file 9 "Drivers/STM32F1xx_HAL_Driver/Inc/stm32f1xx_hal_cortex.h"
ARM GAS  /var/folders/sb/5wbx477s1bdgzdppd6ypx7ym0000gn/T//ccE35bpC.s 			page 9

